; Function Attrs: mustprogress uwtable
define hidden void @_ZNK7datalog3bmc18collect_statisticsER10statistics(ptr noundef nonnull readonly align 8 captures(none) dereferenceable(368) %0, ptr noundef nonnull align 8 dereferenceable(16) %1) unnamed_addr #3 align 2 {
  %3 = getelementptr inbounds nuw i8, ptr %0, i64 64
  %4 = load ptr, ptr %3, align 8, !tbaa !214
  %.not = icmp eq ptr %4, null
  br i1 %.not, label %9, label %5

5:                                                ; preds = %2
  %6 = load ptr, ptr %4, align 8, !tbaa !211
  %7 = getelementptr inbounds nuw i8, ptr %6, i64 16
  %8 = load ptr, ptr %7, align 8
  tail call void %8(ptr noundef nonnull align 8 dereferenceable(72) %4, ptr noundef nonnull align 8 dereferenceable(16) %1)
  br label %9

9:                                                ; preds = %5, %2
  ret void
}